	.file	"main.c"
	.text
	.globl	_swap
	.def	_swap;	.scl	2;	.type	32;	.endef
_swap:
LFB10:
	.cfi_startproc
	pushl	%ebp
	.cfi_def_cfa_offset 8
	.cfi_offset 5, -8
	movl	%esp, %ebp
	.cfi_def_cfa_register 5
	subl	$16, %esp
	movl	8(%ebp), %eax
	movl	(%eax), %eax
	movl	%eax, -4(%ebp)
	movl	12(%ebp), %eax
	movl	(%eax), %edx
	movl	8(%ebp), %eax
	movl	%edx, (%eax)
	movl	12(%ebp), %eax
	movl	-4(%ebp), %edx
	movl	%edx, (%eax)
	nop
	leave
	.cfi_restore 5
	.cfi_def_cfa 4, 4
	ret
	.cfi_endproc
LFE10:
	.globl	_partition
	.def	_partition;	.scl	2;	.type	32;	.endef
_partition:
LFB11:
	.cfi_startproc
	pushl	%ebp
	.cfi_def_cfa_offset 8
	.cfi_offset 5, -8
	movl	%esp, %ebp
	.cfi_def_cfa_register 5
	subl	$24, %esp
	movl	16(%ebp), %eax
	leal	0(,%eax,4), %edx
	movl	8(%ebp), %eax
	addl	%edx, %eax
	movl	(%eax), %eax
	movl	%eax, -12(%ebp)
	movl	12(%ebp), %eax
	subl	$1, %eax
	movl	%eax, -4(%ebp)
	movl	12(%ebp), %eax
	movl	%eax, -8(%ebp)
	jmp	L3
L5:
	movl	-8(%ebp), %eax
	leal	0(,%eax,4), %edx
	movl	8(%ebp), %eax
	addl	%edx, %eax
	movl	(%eax), %eax
	cmpl	-12(%ebp), %eax
	jg	L4
	addl	$1, -4(%ebp)
	movl	-8(%ebp), %eax
	leal	0(,%eax,4), %edx
	movl	8(%ebp), %eax
	addl	%eax, %edx
	movl	-4(%ebp), %eax
	leal	0(,%eax,4), %ecx
	movl	8(%ebp), %eax
	addl	%ecx, %eax
	movl	%edx, 4(%esp)
	movl	%eax, (%esp)
	call	_swap
L4:
	addl	$1, -8(%ebp)
L3:
	movl	-8(%ebp), %eax
	cmpl	16(%ebp), %eax
	jl	L5
	movl	16(%ebp), %eax
	leal	0(,%eax,4), %edx
	movl	8(%ebp), %eax
	addl	%eax, %edx
	movl	-4(%ebp), %eax
	addl	$1, %eax
	leal	0(,%eax,4), %ecx
	movl	8(%ebp), %eax
	addl	%ecx, %eax
	movl	%edx, 4(%esp)
	movl	%eax, (%esp)
	call	_swap
	movl	-4(%ebp), %eax
	addl	$1, %eax
	leave
	.cfi_restore 5
	.cfi_def_cfa 4, 4
	ret
	.cfi_endproc
LFE11:
	.globl	_quicksort
	.def	_quicksort;	.scl	2;	.type	32;	.endef
_quicksort:
LFB12:
	.cfi_startproc
	pushl	%ebp
	.cfi_def_cfa_offset 8
	.cfi_offset 5, -8
	movl	%esp, %ebp
	.cfi_def_cfa_register 5
	subl	$40, %esp
	movl	12(%ebp), %eax
	cmpl	16(%ebp), %eax
	jge	L9
	movl	16(%ebp), %eax
	movl	%eax, 8(%esp)
	movl	12(%ebp), %eax
	movl	%eax, 4(%esp)
	movl	8(%ebp), %eax
	movl	%eax, (%esp)
	call	_partition
	movl	%eax, -12(%ebp)
	movl	-12(%ebp), %eax
	subl	$1, %eax
	movl	%eax, 8(%esp)
	movl	12(%ebp), %eax
	movl	%eax, 4(%esp)
	movl	8(%ebp), %eax
	movl	%eax, (%esp)
	call	_quicksort
	movl	-12(%ebp), %eax
	leal	1(%eax), %edx
	movl	16(%ebp), %eax
	movl	%eax, 8(%esp)
	movl	%edx, 4(%esp)
	movl	8(%ebp), %eax
	movl	%eax, (%esp)
	call	_quicksort
L9:
	nop
	leave
	.cfi_restore 5
	.cfi_def_cfa 4, 4
	ret
	.cfi_endproc
LFE12:
	.section .rdata,"dr"
LC0:
	.ascii "%d \0"
	.text
	.globl	_printArray
	.def	_printArray;	.scl	2;	.type	32;	.endef
_printArray:
LFB13:
	.cfi_startproc
	pushl	%ebp
	.cfi_def_cfa_offset 8
	.cfi_offset 5, -8
	movl	%esp, %ebp
	.cfi_def_cfa_register 5
	subl	$40, %esp
	movl	$0, -12(%ebp)
	jmp	L11
L12:
	movl	-12(%ebp), %eax
	leal	0(,%eax,4), %edx
	movl	8(%ebp), %eax
	addl	%edx, %eax
	movl	(%eax), %eax
	movl	%eax, 4(%esp)
	movl	$LC0, (%esp)
	call	_printf
	addl	$1, -12(%ebp)
L11:
	movl	-12(%ebp), %eax
	cmpl	12(%ebp), %eax
	jl	L12
	movl	$10, (%esp)
	call	_putchar
	nop
	leave
	.cfi_restore 5
	.cfi_def_cfa 4, 4
	ret
	.cfi_endproc
LFE13:
	.def	___main;	.scl	2;	.type	32;	.endef
	.section .rdata,"dr"
	.align 4
LC1:
	.ascii "Enter the number of elements in the array: \0"
LC2:
	.ascii "%d\0"
LC3:
	.ascii "Enter %d elements:\12\0"
LC4:
	.ascii "Original array: \0"
LC5:
	.ascii "Sorted array: \0"
	.text
	.globl	_main
	.def	_main;	.scl	2;	.type	32;	.endef
_main:
LFB14:
	.cfi_startproc
	leal	4(%esp), %ecx
	.cfi_def_cfa 1, 0
	andl	$-16, %esp
	pushl	-4(%ecx)
	pushl	%ebp
	.cfi_escape 0x10,0x5,0x2,0x75,0
	movl	%esp, %ebp
	pushl	%ebx
	pushl	%ecx
	.cfi_escape 0xf,0x3,0x75,0x78,0x6
	.cfi_escape 0x10,0x3,0x2,0x75,0x7c
	subl	$32, %esp
	call	___main
	movl	%esp, %eax
	movl	%eax, %ebx
	movl	$LC1, (%esp)
	call	_printf
	leal	-24(%ebp), %eax
	movl	%eax, 4(%esp)
	movl	$LC2, (%esp)
	call	_scanf
	movl	-24(%ebp), %eax
	leal	-1(%eax), %edx
	movl	%edx, -16(%ebp)
	sall	$2, %eax
	leal	3(%eax), %edx
	movl	$16, %eax
	subl	$1, %eax
	addl	%edx, %eax
	movl	$16, %ecx
	movl	$0, %edx
	divl	%ecx
	imull	$16, %eax, %eax
	call	___chkstk_ms
	subl	%eax, %esp
	leal	12(%esp), %eax
	addl	$3, %eax
	shrl	$2, %eax
	sall	$2, %eax
	movl	%eax, -20(%ebp)
	movl	-24(%ebp), %eax
	movl	%eax, 4(%esp)
	movl	$LC3, (%esp)
	call	_printf
	movl	$0, -12(%ebp)
	jmp	L14
L15:
	movl	-12(%ebp), %eax
	leal	0(,%eax,4), %edx
	movl	-20(%ebp), %eax
	addl	%edx, %eax
	movl	%eax, 4(%esp)
	movl	$LC2, (%esp)
	call	_scanf
	addl	$1, -12(%ebp)
L14:
	movl	-24(%ebp), %eax
	cmpl	%eax, -12(%ebp)
	jl	L15
	movl	$LC4, (%esp)
	call	_printf
	movl	-24(%ebp), %edx
	movl	-20(%ebp), %eax
	movl	%edx, 4(%esp)
	movl	%eax, (%esp)
	call	_printArray
	movl	-24(%ebp), %eax
	leal	-1(%eax), %edx
	movl	-20(%ebp), %eax
	movl	%edx, 8(%esp)
	movl	$0, 4(%esp)
	movl	%eax, (%esp)
	call	_quicksort
	movl	$LC5, (%esp)
	call	_printf
	movl	-24(%ebp), %edx
	movl	-20(%ebp), %eax
	movl	%edx, 4(%esp)
	movl	%eax, (%esp)
	call	_printArray
	call	_getch
	movl	$0, %eax
	movl	%ebx, %esp
	leal	-8(%ebp), %esp
	popl	%ecx
	.cfi_restore 1
	.cfi_def_cfa 1, 0
	popl	%ebx
	.cfi_restore 3
	popl	%ebp
	.cfi_restore 5
	leal	-4(%ecx), %esp
	.cfi_def_cfa 4, 4
	ret
	.cfi_endproc
LFE14:
	.ident	"GCC: (MinGW.org GCC-6.3.0-1) 6.3.0"
	.def	_printf;	.scl	2;	.type	32;	.endef
	.def	_putchar;	.scl	2;	.type	32;	.endef
	.def	_scanf;	.scl	2;	.type	32;	.endef
	.def	_getch;	.scl	2;	.type	32;	.endef
